; Function Attrs: nounwind uwtable
define range(i32 -1, 1) i32 @H5VL__native_dataset_write(i64 noundef %0, ptr noundef readonly captures(none) %1, ptr noundef readonly captures(none) %2, ptr noundef readonly captures(none) %3, ptr noundef readonly captures(none) %4, i64 noundef %5, ptr noundef readonly captures(none) %6, ptr noundef readnone captures(none) %7) local_unnamed_addr #0 {
  %9 = alloca %struct.H5D_dset_io_info_t, align 8
  call void @llvm.lifetime.start.p0(i64 304, ptr nonnull %9) #5
  %10 = icmp ugt i64 %0, 1
  br i1 %10, label %11, label %19

11:                                               ; preds = %8
  %12 = mul i64 %0, 304
  %13 = tail call noalias ptr @malloc(i64 noundef %12) #6
  %14 = icmp eq ptr %13, null
  br i1 %14, label %15, label %19

15:                                               ; preds = %11
  %16 = load i64, ptr @H5E_DATASET_g, align 8, !tbaa !8
  %17 = load i64, ptr @H5E_CANTALLOC_g, align 8, !tbaa !8
  %18 = tail call i32 (ptr, ptr, i32, i64, i64, ptr, ...) @H5E_printf_stack(ptr noundef nonnull @.str, ptr noundef nonnull @__func__.H5VL__native_dataset_write, i32 noundef 409, i64 noundef %16, i64 noundef %17, ptr noundef nonnull @.str.8) #5
  br label %33

19:                                               ; preds = %11, %8
  %.023 = phi ptr [ %13, %11 ], [ %9, %8 ]
  %20 = call fastcc i32 @H5VL__native_dataset_io_setup(i64 noundef %0, ptr noundef %1, ptr noundef %2, ptr noundef %3, ptr noundef %4, i64 noundef %5, ptr noundef %6, ptr noundef %.023)
  %21 = icmp slt i32 %20, 0
  br i1 %21, label %22, label %26

22:                                               ; preds = %19
  %23 = load i64, ptr @H5E_DATASET_g, align 8, !tbaa !8
  %24 = load i64, ptr @H5E_CANTINIT_g, align 8, !tbaa !8
  %25 = tail call i32 (ptr, ptr, i32, i64, i64, ptr, ...) @H5E_printf_stack(ptr noundef nonnull @.str, ptr noundef nonnull @__func__.H5VL__native_dataset_write, i32 noundef 414, i64 noundef %23, i64 noundef %24, ptr noundef nonnull @.str.9) #5
  br label %33

26:                                               ; preds = %19
  tail call void @H5CX_set_dxpl(i64 noundef %5) #5
  %27 = call i32 @H5D__write(i64 noundef %0, ptr noundef nonnull %.023) #5
  %28 = icmp slt i32 %27, 0
  br i1 %28, label %29, label %33

29:                                               ; preds = %26
  %30 = load i64, ptr @H5E_DATASET_g, align 8, !tbaa !8
  %31 = load i64, ptr @H5E_WRITEERROR_g, align 8, !tbaa !8
  %32 = call i32 (ptr, ptr, i32, i64, i64, ptr, ...) @H5E_printf_stack(ptr noundef nonnull @.str, ptr noundef nonnull @__func__.H5VL__native_dataset_write, i32 noundef 421, i64 noundef %30, i64 noundef %31, ptr noundef nonnull @.str.12) #5
  br label %33

33:                                               ; preds = %26, %29, %22, %15
  %.124 = phi ptr [ null, %15 ], [ %.023, %22 ], [ %.023, %29 ], [ %.023, %26 ]
  %.0 = phi i32 [ -1, %15 ], [ -1, %22 ], [ -1, %29 ], [ 0, %26 ]
  %34 = call fastcc i32 @H5VL__native_dataset_io_cleanup(i64 noundef %0, ptr noundef %3, ptr noundef %4, ptr noundef %.124)
  %35 = icmp slt i32 %34, 0
  br i1 %35, label %36, label %40

36:                                               ; preds = %33
  %37 = load i64, ptr @H5E_DATASET_g, align 8, !tbaa !8
  %38 = load i64, ptr @H5E_CANTRELEASE_g, align 8, !tbaa !8
  %39 = call i32 (ptr, ptr, i32, i64, i64, ptr, ...) @H5E_printf_stack(ptr noundef nonnull @.str, ptr noundef nonnull @__func__.H5VL__native_dataset_write, i32 noundef 426, i64 noundef %37, i64 noundef %38, ptr noundef nonnull @.str.11) #5
  br label %40

40:                                               ; preds = %36, %33
  %.1 = phi i32 [ -1, %36 ], [ %.0, %33 ]
  %.not = icmp eq ptr %.124, %9
  br i1 %.not, label %43, label %41

41:                                               ; preds = %40
  %42 = call ptr @H5MM_xfree(ptr noundef %.124) #5
  br label %43

43:                                               ; preds = %41, %40
  call void @llvm.lifetime.end.p0(i64 304, ptr nonnull %9) #5
  ret i32 %.1
}